target datalayout = "e-m:e-p270:32:32-p271:32:32-p272:64:64-i64:64-i128:128-f80:128-n8:16:32:64-S128"
target triple = "x86_64-pc-linux-gnu"

%struct.MpegEncContext = type { ptr, i32, i32, i32, [12 x i32], i32, %struct.ScanTable, %struct.ScanTable, [64 x i8], [64 x i8], ptr, ptr, i32, i32, i32, i32, i32, i32, i32, i32, i32, i32, i32, i32, i32, i32, i32, i32, i32, i32, i32, i32, i64, i64, ptr, %struct.BufferPoolContext, i32, i32, %union.anon, i32, %struct.MPVWorkPicture, %struct.MPVWorkPicture, %struct.MPVWorkPicture, i32, [3 x i32], ptr, [3 x ptr], ptr, ptr, ptr, ptr, ptr, ptr, [3 x ptr], i32, ptr, ptr, ptr, ptr, %struct.ScratchpadContext, i32, i32, i32, i32, i32, i32, %struct.BlockDSPContext, %struct.H264ChromaContext, %struct.HpelDSPContext, %struct.IDCTDSPContext, %struct.QpelDSPContext, %struct.VideoDSPContext, %struct.H263DSPContext, ptr, [2 x [2 x ptr]], i32, i32, [2 x [4 x [2 x i32]]], [2 x [2 x i32]], [2 x [2 x [2 x i32]]], [2 x [64 x i16]], i32, i32, i32, i32, i32, [6 x i32], [6 x i32], [3 x ptr], ptr, [64 x i16], [64 x i16], [64 x i16], [64 x i16], i32, i32, %struct.GetBitContext, i32, i32, i32, i32, i32, i32, i32, i32, i32, i32, i32, i32, i32, i32, i32, i64, i64, i16, i16, i16, i16, i32, i32, i32, i32, i32, i32, i32, i32, i32, [3 x i32], i32, i32, i32, i32, i32, i32, %struct.GetBitContext, i32, [2 x [2 x i32]], i32, i32, i32, i32, i32, i32, i32, i32, i32, i32, i32, i32, i32, i32, [2 x i32], i32, i32, ptr, ptr, ptr, ptr, ptr, i32, i32, %struct.ERContext }
%struct.ScanTable = type { ptr, [64 x i8], [64 x i8] }
%struct.BufferPoolContext = type { ptr, ptr, ptr, ptr, ptr, i32, i32, i32 }
%union.anon = type { [32 x ptr] }
%struct.MPVWorkPicture = type { [3 x ptr], [3 x i64], ptr, ptr, [2 x ptr], ptr, ptr, [2 x ptr], i32 }
%struct.ScratchpadContext = type { ptr, ptr, %union.anon.0, i32 }
%union.anon.0 = type { ptr }
%struct.BlockDSPContext = type { ptr, ptr, [2 x ptr] }
%struct.H264ChromaContext = type { [4 x ptr], [4 x ptr] }
%struct.HpelDSPContext = type { [4 x [4 x ptr]], [4 x [4 x ptr]], [4 x [4 x ptr]], [4 x ptr] }
%struct.IDCTDSPContext = type { ptr, ptr, ptr, ptr, ptr, ptr, [64 x i8], i32, i32 }
%struct.QpelDSPContext = type { [2 x [16 x ptr]], [2 x [16 x ptr]], [2 x [16 x ptr]] }
%struct.VideoDSPContext = type { ptr, ptr }
%struct.H263DSPContext = type { ptr, ptr }
%struct.GetBitContext = type { ptr, ptr, i32, i32, i32 }
%struct.ERContext = type { ptr, ptr, i32, ptr, i32, i32, i32, i64, i64, i32, i32, ptr, ptr, [3 x ptr], ptr, ptr, [2 x [4 x [2 x i32]]], %struct.ERPicture, %struct.ERPicture, %struct.ERPicture, [2 x ptr], [2 x ptr], i16, i16, i32, i32, ptr, ptr }
%struct.ERPicture = type { ptr, ptr, ptr, [2 x ptr], [2 x ptr], ptr, i32 }
%struct.AVCodecContext = type { ptr, i32, i32, ptr, i32, i32, ptr, ptr, ptr, i64, i32, i32, ptr, i32, %struct.AVRational, %struct.AVRational, %struct.AVRational, i32, i32, i32, i32, i32, %struct.AVRational, i32, i32, i32, i32, i32, i32, i32, i32, i32, i32, i32, ptr, ptr, i32, float, float, float, float, float, float, float, float, float, i32, i32, i32, i32, i32, i32, i32, i32, i32, i32, i32, i32, ptr, ptr, ptr, i32, i32, i32, i32, i32, i32, i32, i32, i32, i32, %struct.AVChannelLayout, i32, i32, i32, i32, i32, i32, i32, i32, ptr, i32, i32, i32, float, float, i32, i32, i32, i32, i32, ptr, i64, i64, float, float, i32, i32, ptr, ptr, i32, i32, i32, i32, i32, ptr, ptr, ptr, ptr, i32, i32, [8 x i64], i32, i32, i32, i32, i32, i32, i32, ptr, ptr, i32, i32, i32, i32, i32, i32, i32, i32, i32, i32, ptr, ptr, i32, i32, ptr, ptr, ptr, ptr, i32, i32, i64, i32, i32, i64, ptr, i64, ptr, i32, ptr, i32 }
%struct.AVRational = type { i32, i32 }
%struct.AVChannelLayout = type { i32, i32, %union.anon.1, ptr }
%union.anon.1 = type { i64 }

; Function Attrs: cold nounwind optsize uwtable
define i32 @ff_mpv_common_frame_size_change(ptr noundef %0) #0 {
  %2 = alloca i32, align 4
  %3 = alloca ptr, align 8
  %4 = alloca i32, align 4
  %5 = alloca i32, align 4
  store ptr %0, ptr %3, align 8, !tbaa !4
  call void @llvm.lifetime.start.p0(i64 4, ptr %4) #11
  store i32 0, ptr %4, align 4, !tbaa !68
  %6 = load ptr, ptr %3, align 8, !tbaa !4
  %7 = getelementptr inbounds nuw %struct.MpegEncContext, ptr %6, i32 0, i32 23
  %8 = load i32, ptr %7, align 4, !tbaa !77
  %9 = icmp ne i32 %8, 0
  br i1 %9, label %11, label %10

10:                                               ; preds = %1
  store i32 -22, ptr %2, align 4
  store i32 1, ptr %5, align 4
  br label %92

11:                                               ; preds = %1
  %12 = load ptr, ptr %3, align 8, !tbaa !4
  call void @ff_mpv_free_context_frame(ptr noundef %12)
  %13 = load ptr, ptr %3, align 8, !tbaa !4
  %14 = getelementptr inbounds nuw %struct.MpegEncContext, ptr %13, i32 0, i32 40
  call void @ff_mpv_unref_picture(ptr noundef %14)
  %15 = load ptr, ptr %3, align 8, !tbaa !4
  %16 = getelementptr inbounds nuw %struct.MpegEncContext, ptr %15, i32 0, i32 41
  call void @ff_mpv_unref_picture(ptr noundef %16)
  %17 = load ptr, ptr %3, align 8, !tbaa !4
  %18 = getelementptr inbounds nuw %struct.MpegEncContext, ptr %17, i32 0, i32 42
  call void @ff_mpv_unref_picture(ptr noundef %18)
  %19 = load ptr, ptr %3, align 8, !tbaa !4
  %20 = getelementptr inbounds nuw %struct.MpegEncContext, ptr %19, i32 0, i32 12
  %21 = load i32, ptr %20, align 8, !tbaa !53
  %22 = icmp ne i32 %21, 0
  br i1 %22, label %28, label %23

23:                                               ; preds = %11
  %24 = load ptr, ptr %3, align 8, !tbaa !4
  %25 = getelementptr inbounds nuw %struct.MpegEncContext, ptr %24, i32 0, i32 13
  %26 = load i32, ptr %25, align 4, !tbaa !55
  %27 = icmp ne i32 %26, 0
  br i1 %27, label %28, label %41

28:                                               ; preds = %23, %11
  %29 = load ptr, ptr %3, align 8, !tbaa !4
  %30 = getelementptr inbounds nuw %struct.MpegEncContext, ptr %29, i32 0, i32 12
  %31 = load i32, ptr %30, align 8, !tbaa !53
  %32 = load ptr, ptr %3, align 8, !tbaa !4
  %33 = getelementptr inbounds nuw %struct.MpegEncContext, ptr %32, i32 0, i32 13
  %34 = load i32, ptr %33, align 4, !tbaa !55
  %35 = load ptr, ptr %3, align 8, !tbaa !4
  %36 = getelementptr inbounds nuw %struct.MpegEncContext, ptr %35, i32 0, i32 10
  %37 = load ptr, ptr %36, align 8, !tbaa !11
  %38 = call i32 @av_image_check_size(i32 noundef %31, i32 noundef %34, i32 noundef 0, ptr noundef %37)
  store i32 %38, ptr %4, align 4, !tbaa !68
  %39 = icmp slt i32 %38, 0
  br i1 %39, label %40, label %41

40:                                               ; preds = %28
  br label %87

41:                                               ; preds = %28, %23
  %42 = load ptr, ptr %3, align 8, !tbaa !4
  %43 = getelementptr inbounds nuw %struct.MpegEncContext, ptr %42, i32 0, i32 10
  %44 = load ptr, ptr %43, align 8, !tbaa !11
  %45 = getelementptr inbounds nuw %struct.AVCodecContext, ptr %44, i32 0, i32 23
  %46 = load i32, ptr %45, align 8, !tbaa !78
  %47 = load ptr, ptr %3, align 8, !tbaa !4
  %48 = getelementptr inbounds nuw %struct.MpegEncContext, ptr %47, i32 0, i32 148
  %49 = load ptr, ptr %3, align 8, !tbaa !4
  %50 = getelementptr inbounds nuw %struct.MpegEncContext, ptr %49, i32 0, i32 149
  %51 = call i32 @av_pix_fmt_get_chroma_sub_sample(i32 noundef %46, ptr noundef %48, ptr noundef %50)
  store i32 %51, ptr %4, align 4, !tbaa !68
  %52 = load i32, ptr %4, align 4, !tbaa !68
  %53 = icmp slt i32 %52, 0
  br i1 %53, label %54, label %55

54:                                               ; preds = %41
  br label %87

55:                                               ; preds = %41
  %56 = load ptr, ptr %3, align 8, !tbaa !4
  %57 = call i32 @ff_mpv_init_context_frame(ptr noundef %56)
  store i32 %57, ptr %4, align 4, !tbaa !68
  %58 = icmp ne i32 %57, 0
  br i1 %58, label %59, label %60

59:                                               ; preds = %55
  br label %87

60:                                               ; preds = %55
  %61 = load ptr, ptr %3, align 8, !tbaa !4
  %62 = getelementptr inbounds nuw %struct.MpegEncContext, ptr %61, i32 0, i32 38
  %63 = getelementptr inbounds [32 x ptr], ptr %62, i64 0, i64 0
  call void @llvm.memset.p0.i64(ptr align 8 %63, i8 0, i64 256, i1 false)
  %64 = load ptr, ptr %3, align 8, !tbaa !4
  %65 = load ptr, ptr %3, align 8, !tbaa !4
  %66 = getelementptr inbounds nuw %struct.MpegEncContext, ptr %65, i32 0, i32 38
  %67 = getelementptr inbounds [32 x ptr], ptr %66, i64 0, i64 0
  store ptr %64, ptr %67, align 8, !tbaa !79
  %68 = load ptr, ptr %3, align 8, !tbaa !4
  %69 = getelementptr inbounds nuw %struct.MpegEncContext, ptr %68, i32 0, i32 12
  %70 = load i32, ptr %69, align 8, !tbaa !53
  %71 = icmp ne i32 %70, 0
  br i1 %71, label %72, label %84

72:                                               ; preds = %60
  %73 = load ptr, ptr %3, align 8, !tbaa !4
  %74 = getelementptr inbounds nuw %struct.MpegEncContext, ptr %73, i32 0, i32 13
  %75 = load i32, ptr %74, align 4, !tbaa !55
  %76 = icmp ne i32 %75, 0
  br i1 %76, label %77, label %84

77:                                               ; preds = %72
  %78 = load ptr, ptr %3, align 8, !tbaa !4
  %79 = call i32 @ff_mpv_init_duplicate_contexts(ptr noundef %78)
  store i32 %79, ptr %4, align 4, !tbaa !68
  %80 = load i32, ptr %4, align 4, !tbaa !68
  %81 = icmp slt i32 %80, 0
  br i1 %81, label %82, label %83

82:                                               ; preds = %77
  br label %87

83:                                               ; preds = %77
  br label %84

84:                                               ; preds = %83, %72, %60
  %85 = load ptr, ptr %3, align 8, !tbaa !4
  %86 = getelementptr inbounds nuw %struct.MpegEncContext, ptr %85, i32 0, i32 159
  store i32 0, ptr %86, align 8, !tbaa !70
  store i32 0, ptr %2, align 4
  store i32 1, ptr %5, align 4
  br label %92

87:                                               ; preds = %82, %59, %54, %40
  %88 = load ptr, ptr %3, align 8, !tbaa !4
  call void @ff_mpv_free_context_frame(ptr noundef %88)
  %89 = load ptr, ptr %3, align 8, !tbaa !4
  %90 = getelementptr inbounds nuw %struct.MpegEncContext, ptr %89, i32 0, i32 159
  store i32 1, ptr %90, align 8, !tbaa !70
  %91 = load i32, ptr %4, align 4, !tbaa !68
  store i32 %91, ptr %2, align 4
  store i32 1, ptr %5, align 4
  br label %92

92:                                               ; preds = %87, %84, %10
  call void @llvm.lifetime.end.p0(i64 4, ptr %4) #11
  %93 = load i32, ptr %2, align 4
  ret i32 %93
}