; Function Attrs: cold nounwind optsize uwtable
define i32 @ff_mpv_common_frame_size_change(ptr noundef %0) local_unnamed_addr #0 {
  %2 = getelementptr inbounds nuw i8, ptr %0, i64 532
  %3 = load i32, ptr %2, align 4, !tbaa !73
  %.not = icmp eq i32 %3, 0
  br i1 %.not, label %39, label %4

4:                                                ; preds = %1
  tail call void @ff_mpv_free_context_frame(ptr noundef nonnull %0) #10
  %5 = getelementptr inbounds nuw i8, ptr %0, i64 920
  tail call void @ff_mpv_unref_picture(ptr noundef nonnull %5) #10
  %6 = getelementptr inbounds nuw i8, ptr %0, i64 1040
  tail call void @ff_mpv_unref_picture(ptr noundef nonnull %6) #10
  %7 = getelementptr inbounds nuw i8, ptr %0, i64 1160
  tail call void @ff_mpv_unref_picture(ptr noundef nonnull %7) #10
  %8 = getelementptr inbounds nuw i8, ptr %0, i64 488
  %9 = load i32, ptr %8, align 8, !tbaa !50
  %.not31 = icmp eq i32 %9, 0
  %10 = getelementptr inbounds nuw i8, ptr %0, i64 492
  %11 = load i32, ptr %10, align 4, !tbaa !52
  %.not32 = icmp eq i32 %11, 0
  %or.cond = select i1 %.not31, i1 %.not32, i1 false
  br i1 %or.cond, label %16, label %._crit_edge

._crit_edge:                                      ; preds = %4
  %12 = getelementptr inbounds nuw i8, ptr %0, i64 472
  %13 = load ptr, ptr %12, align 8, !tbaa !4
  %14 = tail call i32 @av_image_check_size(i32 noundef %9, i32 noundef %11, i32 noundef 0, ptr noundef %13) #10
  %15 = icmp slt i32 %14, 0
  br i1 %15, label %37, label %16

16:                                               ; preds = %4, %._crit_edge
  %17 = getelementptr inbounds nuw i8, ptr %0, i64 472
  %18 = load ptr, ptr %17, align 8, !tbaa !4
  %19 = getelementptr inbounds nuw i8, ptr %18, i64 136
  %20 = load i32, ptr %19, align 8, !tbaa !74
  %21 = getelementptr inbounds nuw i8, ptr %0, i64 4256
  %22 = getelementptr inbounds nuw i8, ptr %0, i64 4260
  %23 = tail call i32 @av_pix_fmt_get_chroma_sub_sample(i32 noundef %20, ptr noundef nonnull %21, ptr noundef nonnull %22) #10
  %24 = icmp slt i32 %23, 0
  br i1 %24, label %37, label %25

25:                                               ; preds = %16
  %26 = tail call i32 @ff_mpv_init_context_frame(ptr noundef nonnull %0) #10
  %.not33 = icmp eq i32 %26, 0
  br i1 %.not33, label %27, label %37

27:                                               ; preds = %25
  %28 = getelementptr inbounds nuw i8, ptr %0, i64 656
  %29 = getelementptr inbounds nuw i8, ptr %0, i64 664
  tail call void @llvm.memset.p0.i64(ptr noundef nonnull align 8 dereferenceable(248) %29, i8 0, i64 248, i1 false)
  store ptr %0, ptr %28, align 8, !tbaa !75
  %30 = load i32, ptr %8, align 8, !tbaa !50
  %.not34 = icmp eq i32 %30, 0
  br i1 %.not34, label %.sink.split, label %31

31:                                               ; preds = %27
  %32 = getelementptr inbounds nuw i8, ptr %0, i64 492
  %33 = load i32, ptr %32, align 4, !tbaa !52
  %.not35 = icmp eq i32 %33, 0
  br i1 %.not35, label %.sink.split, label %34

34:                                               ; preds = %31
  %35 = tail call i32 @ff_mpv_init_duplicate_contexts(ptr noundef nonnull %0) #10
  %36 = icmp slt i32 %35, 0
  br i1 %36, label %37, label %.sink.split

37:                                               ; preds = %34, %25, %16, %._crit_edge
  %.0 = phi i32 [ %14, %._crit_edge ], [ %23, %16 ], [ %26, %25 ], [ %35, %34 ]
  tail call void @ff_mpv_free_context_frame(ptr noundef nonnull %0) #10
  br label %.sink.split

.sink.split:                                      ; preds = %27, %31, %34, %37
  %.sink = phi i32 [ 1, %37 ], [ 0, %34 ], [ 0, %31 ], [ 0, %27 ]
  %.026.ph = phi i32 [ %.0, %37 ], [ 0, %34 ], [ 0, %31 ], [ 0, %27 ]
  %38 = getelementptr inbounds nuw i8, ptr %0, i64 4328
  store i32 %.sink, ptr %38, align 8, !tbaa !66
  br label %39

39:                                               ; preds = %.sink.split, %1
  %.026 = phi i32 [ -22, %1 ], [ %.026.ph, %.sink.split ]
  ret i32 %.026
}